target datalayout = "e-m:e-p270:32:32-p271:32:32-p272:64:64-i64:64-i128:128-f80:128-n8:16:32:64-S128"
target triple = "x86_64-pc-linux-gnu"

%struct.dtlink_s_ = type { ptr, %union.anon }
%union.anon = type { ptr }
%struct.Agraph_s = type { %struct.Agobj_s, %struct.Agdesc_s, %struct.dtlink_s_, %struct.dtlink_s_, ptr, ptr, ptr, ptr, ptr, ptr, ptr, ptr, ptr }
%struct.Agobj_s = type { %struct.Agtag_s, ptr }
%struct.Agtag_s = type { i32, i64 }
%struct.Agdesc_s = type { i8, [3 x i8] }
%struct.Agclos_s = type { %struct.Agdisc_s, %struct.Agdstate_s, ptr, [3 x i64], ptr, [3 x ptr], [3 x ptr] }
%struct.Agdisc_s = type { ptr, ptr }
%struct.Agdstate_s = type { ptr }

@Ag_G_global = external global ptr, align 8

; Function Attrs: nounwind uwtable
define internal void @closeit(ptr noundef %0) #0 {
  %2 = alloca ptr, align 8
  %3 = alloca i32, align 4
  store ptr %0, ptr %2, align 8, !tbaa !38
  call void @llvm.lifetime.start.p0(i64 4, ptr %3) #8
  store i32 0, ptr %3, align 4, !tbaa !8
  br label %4

4:                                                ; preds = %26, %1
  %5 = load i32, ptr %3, align 4, !tbaa !8
  %6 = icmp slt i32 %5, 3
  br i1 %6, label %7, label %29

7:                                                ; preds = %4
  %8 = load ptr, ptr %2, align 8, !tbaa !38
  %9 = load i32, ptr %3, align 4, !tbaa !8
  %10 = sext i32 %9 to i64
  %11 = getelementptr inbounds ptr, ptr %8, i64 %10
  %12 = load ptr, ptr %11, align 8, !tbaa !26
  %13 = icmp ne ptr %12, null
  br i1 %13, label %14, label %25

14:                                               ; preds = %7
  %15 = load ptr, ptr %2, align 8, !tbaa !38
  %16 = load i32, ptr %3, align 4, !tbaa !8
  %17 = sext i32 %16 to i64
  %18 = getelementptr inbounds ptr, ptr %15, i64 %17
  %19 = load ptr, ptr %18, align 8, !tbaa !26
  %20 = call i32 @dtclose(ptr noundef %19)
  %21 = load ptr, ptr %2, align 8, !tbaa !38
  %22 = load i32, ptr %3, align 4, !tbaa !8
  %23 = sext i32 %22 to i64
  %24 = getelementptr inbounds ptr, ptr %21, i64 %23
  store ptr null, ptr %24, align 8, !tbaa !26
  br label %25

25:                                               ; preds = %14, %7
  br label %26

26:                                               ; preds = %25
  %27 = load i32, ptr %3, align 4, !tbaa !8
  %28 = add nsw i32 %27, 1
  store i32 %28, ptr %3, align 4, !tbaa !8
  br label %4, !llvm.loop !44

29:                                               ; preds = %4
  call void @llvm.lifetime.end.p0(i64 4, ptr %3) #8
  ret void
}

; Function Attrs: nounwind uwtable
define void @aginternalmapclose(ptr noundef %0) #0 {
  %2 = alloca ptr, align 8
  store ptr %0, ptr %2, align 8, !tbaa !3
  %3 = load ptr, ptr %2, align 8, !tbaa !3
  store ptr %3, ptr @Ag_G_global, align 8, !tbaa !3
  %4 = load ptr, ptr %2, align 8, !tbaa !3
  %5 = getelementptr inbounds nuw %struct.Agraph_s, ptr %4, i32 0, i32 12
  %6 = load ptr, ptr %5, align 8, !tbaa !14
  %7 = getelementptr inbounds nuw %struct.Agclos_s, ptr %6, i32 0, i32 5
  %8 = getelementptr inbounds [3 x ptr], ptr %7, i64 0, i64 0
  call void @closeit(ptr noundef %8)
  %9 = load ptr, ptr %2, align 8, !tbaa !3
  %10 = getelementptr inbounds nuw %struct.Agraph_s, ptr %9, i32 0, i32 12
  %11 = load ptr, ptr %10, align 8, !tbaa !14
  %12 = getelementptr inbounds nuw %struct.Agclos_s, ptr %11, i32 0, i32 6
  %13 = getelementptr inbounds [3 x ptr], ptr %12, i64 0, i64 0
  call void @closeit(ptr noundef %13)
  ret void
}