; Function Attrs: nounwind uwtable
define void @aginternalmapclose(ptr noundef %0) local_unnamed_addr #0 {
  store ptr %0, ptr @Ag_G_global, align 8, !tbaa !33
  %2 = getelementptr inbounds nuw i8, ptr %0, i64 128
  %3 = load ptr, ptr %2, align 8, !tbaa !3
  %4 = getelementptr inbounds nuw i8, ptr %3, i64 64
  br label %5

5:                                                ; preds = %10, %1
  %indvars.iv.i = phi i64 [ 0, %1 ], [ %indvars.iv.next.i, %10 ]
  %6 = getelementptr inbounds nuw ptr, ptr %4, i64 %indvars.iv.i
  %7 = load ptr, ptr %6, align 8, !tbaa !20
  %.not.i = icmp eq ptr %7, null
  br i1 %.not.i, label %10, label %8

8:                                                ; preds = %5
  %9 = tail call i32 @dtclose(ptr noundef nonnull %7) #10
  store ptr null, ptr %6, align 8, !tbaa !20
  br label %10

10:                                               ; preds = %8, %5
  %indvars.iv.next.i = add nuw nsw i64 %indvars.iv.i, 1
  %exitcond.not.i = icmp eq i64 %indvars.iv.next.i, 3
  br i1 %exitcond.not.i, label %closeit.exit, label %5, !llvm.loop !38

closeit.exit:                                     ; preds = %10
  %11 = load ptr, ptr %2, align 8, !tbaa !3
  %12 = getelementptr inbounds nuw i8, ptr %11, i64 88
  br label %13

13:                                               ; preds = %18, %closeit.exit
  %indvars.iv.i3 = phi i64 [ 0, %closeit.exit ], [ %indvars.iv.next.i5, %18 ]
  %14 = getelementptr inbounds nuw ptr, ptr %12, i64 %indvars.iv.i3
  %15 = load ptr, ptr %14, align 8, !tbaa !20
  %.not.i4 = icmp eq ptr %15, null
  br i1 %.not.i4, label %18, label %16

16:                                               ; preds = %13
  %17 = tail call i32 @dtclose(ptr noundef nonnull %15) #10
  store ptr null, ptr %14, align 8, !tbaa !20
  br label %18

18:                                               ; preds = %16, %13
  %indvars.iv.next.i5 = add nuw nsw i64 %indvars.iv.i3, 1
  %exitcond.not.i6 = icmp eq i64 %indvars.iv.next.i5, 3
  br i1 %exitcond.not.i6, label %closeit.exit7, label %13, !llvm.loop !38

closeit.exit7:                                    ; preds = %18
  ret void
}